; Function Attrs: mustprogress nofree norecurse nosync nounwind willreturn memory(read, inaccessiblemem: none) uwtable
define hidden ptr @_PyCompile_TopFBlock(ptr noundef readonly captures(none) %0) local_unnamed_addr #5 {
  %2 = getelementptr inbounds nuw i8, ptr %0, i64 64
  %3 = load ptr, ptr %2, align 8, !tbaa !42
  %4 = getelementptr inbounds nuw i8, ptr %3, i64 48
  %5 = load i32, ptr %4, align 8, !tbaa !59
  %6 = icmp eq i32 %5, 0
  %7 = getelementptr inbounds nuw i8, ptr %3, i64 56
  %8 = add i32 %5, -1
  %9 = sext i32 %8 to i64
  %10 = getelementptr [21 x %struct._PyCompile_FBlockInfo], ptr %7, i64 0, i64 %9
  %.0 = select i1 %6, ptr null, ptr %10
  ret ptr %.0
}